target datalayout = "e-m:e-p270:32:32-p271:32:32-p272:64:64-i64:64-i128:128-f80:128-n8:16:32:64-S128"
target triple = "x86_64-pc-linux-gnu"

@bio_err = external global ptr, align 8
@.str.323 = private unnamed_addr constant [12 x i8] c"Signer %d:\0A\00", align 1
@.str.324 = private unnamed_addr constant [22 x i8] c"  No Receipt Request\0A\00", align 1
@.str.325 = private unnamed_addr constant [31 x i8] c"  Receipt Request Parse Error\0A\00", align 1
@.str.326 = private unnamed_addr constant [22 x i8] c"  Signed Content ID:\0A\00", align 1
@.str.327 = private unnamed_addr constant [16 x i8] c"  Receipts From\00", align 1
@.str.328 = private unnamed_addr constant [8 x i8] c" List:\0A\00", align 1
@.str.329 = private unnamed_addr constant [14 x i8] c": First Tier\0A\00", align 1
@.str.330 = private unnamed_addr constant [7 x i8] c": All\0A\00", align 1
@.str.331 = private unnamed_addr constant [15 x i8] c" Unknown (%d)\0A\00", align 1
@.str.332 = private unnamed_addr constant [16 x i8] c"  Receipts To:\0A\00", align 1

; Function Attrs: inlinehint nounwind uwtable
define internal ptr @ossl_check_const_CMS_SignerInfo_sk_type(ptr noundef %0) #3 {
  %2 = alloca ptr, align 8
  store ptr %0, ptr %2, align 8, !tbaa !62
  %3 = load ptr, ptr %2, align 8, !tbaa !62
  ret ptr %3
}

; Function Attrs: nounwind uwtable
define internal void @receipt_request_print(ptr noundef %0) #0 {
  %2 = alloca ptr, align 8
  %3 = alloca ptr, align 8
  %4 = alloca ptr, align 8
  %5 = alloca ptr, align 8
  %6 = alloca i32, align 4
  %7 = alloca ptr, align 8
  %8 = alloca ptr, align 8
  %9 = alloca ptr, align 8
  %10 = alloca i32, align 4
  %11 = alloca i32, align 4
  %12 = alloca ptr, align 8
  %13 = alloca i32, align 4
  store ptr %0, ptr %2, align 8, !tbaa !17
  call void @llvm.lifetime.start.p0(i64 8, ptr %3) #4
  call void @llvm.lifetime.start.p0(i64 8, ptr %4) #4
  call void @llvm.lifetime.start.p0(i64 8, ptr %5) #4
  call void @llvm.lifetime.start.p0(i64 4, ptr %6) #4
  call void @llvm.lifetime.start.p0(i64 8, ptr %7) #4
  call void @llvm.lifetime.start.p0(i64 8, ptr %8) #4
  call void @llvm.lifetime.start.p0(i64 8, ptr %9) #4
  call void @llvm.lifetime.start.p0(i64 4, ptr %10) #4
  call void @llvm.lifetime.start.p0(i64 4, ptr %11) #4
  %14 = load ptr, ptr %2, align 8, !tbaa !17
  %15 = call ptr @CMS_get0_SignerInfos(ptr noundef %14)
  store ptr %15, ptr %3, align 8, !tbaa !62
  store i32 0, ptr %10, align 4, !tbaa !4
  br label %16

16:                                               ; preds = %90, %1
  %17 = load i32, ptr %10, align 4, !tbaa !4
  %18 = load ptr, ptr %3, align 8, !tbaa !62
  %19 = call ptr @ossl_check_const_CMS_SignerInfo_sk_type(ptr noundef %18)
  %20 = call i32 @OPENSSL_sk_num(ptr noundef %19)
  %21 = icmp slt i32 %17, %20
  br i1 %21, label %22, label %93

22:                                               ; preds = %16
  %23 = load ptr, ptr %3, align 8, !tbaa !62
  %24 = call ptr @ossl_check_const_CMS_SignerInfo_sk_type(ptr noundef %23)
  %25 = load i32, ptr %10, align 4, !tbaa !4
  %26 = call ptr @OPENSSL_sk_value(ptr noundef %24, i32 noundef %25)
  store ptr %26, ptr %4, align 8, !tbaa !64
  %27 = load ptr, ptr %4, align 8, !tbaa !64
  %28 = call i32 @CMS_get1_ReceiptRequest(ptr noundef %27, ptr noundef %5)
  store i32 %28, ptr %11, align 4, !tbaa !4
  %29 = load ptr, ptr @bio_err, align 8, !tbaa !15
  %30 = load i32, ptr %10, align 4, !tbaa !4
  %31 = add nsw i32 %30, 1
  %32 = call i32 (ptr, ptr, ...) @BIO_printf(ptr noundef %29, ptr noundef @.str.323, i32 noundef %31)
  %33 = load i32, ptr %11, align 4, !tbaa !4
  %34 = icmp eq i32 %33, 0
  br i1 %34, label %35, label %38

35:                                               ; preds = %22
  %36 = load ptr, ptr @bio_err, align 8, !tbaa !15
  %37 = call i32 @BIO_puts(ptr noundef %36, ptr noundef @.str.324)
  br label %88

38:                                               ; preds = %22
  %39 = load i32, ptr %11, align 4, !tbaa !4
  %40 = icmp slt i32 %39, 0
  br i1 %40, label %41, label %45

41:                                               ; preds = %38
  %42 = load ptr, ptr @bio_err, align 8, !tbaa !15
  %43 = call i32 @BIO_puts(ptr noundef %42, ptr noundef @.str.325)
  %44 = load ptr, ptr @bio_err, align 8, !tbaa !15
  call void @ERR_print_errors(ptr noundef %44)
  br label %87

45:                                               ; preds = %38
  call void @llvm.lifetime.start.p0(i64 8, ptr %12) #4
  call void @llvm.lifetime.start.p0(i64 4, ptr %13) #4
  %46 = load ptr, ptr %5, align 8, !tbaa !19
  call void @CMS_ReceiptRequest_get0_values(ptr noundef %46, ptr noundef %9, ptr noundef %6, ptr noundef %8, ptr noundef %7)
  %47 = load ptr, ptr @bio_err, align 8, !tbaa !15
  %48 = call i32 @BIO_puts(ptr noundef %47, ptr noundef @.str.326)
  %49 = load ptr, ptr %9, align 8, !tbaa !79
  %50 = call i32 @ASN1_STRING_length(ptr noundef %49)
  store i32 %50, ptr %13, align 4, !tbaa !4
  %51 = load ptr, ptr %9, align 8, !tbaa !79
  %52 = call ptr @ASN1_STRING_get0_data(ptr noundef %51)
  store ptr %52, ptr %12, align 8, !tbaa !39
  %53 = load ptr, ptr @bio_err, align 8, !tbaa !15
  %54 = load ptr, ptr %12, align 8, !tbaa !39
  %55 = load i32, ptr %13, align 4, !tbaa !4
  %56 = call i32 @BIO_dump_indent(ptr noundef %53, ptr noundef %54, i32 noundef %55, i32 noundef 4)
  %57 = load ptr, ptr @bio_err, align 8, !tbaa !15
  %58 = call i32 @BIO_puts(ptr noundef %57, ptr noundef @.str.327)
  %59 = load ptr, ptr %8, align 8, !tbaa !77
  %60 = icmp ne ptr %59, null
  br i1 %60, label %61, label %65

61:                                               ; preds = %45
  %62 = load ptr, ptr @bio_err, align 8, !tbaa !15
  %63 = call i32 @BIO_puts(ptr noundef %62, ptr noundef @.str.328)
  %64 = load ptr, ptr %8, align 8, !tbaa !77
  call void @gnames_stack_print(ptr noundef %64)
  br label %83

65:                                               ; preds = %45
  %66 = load i32, ptr %6, align 4, !tbaa !4
  %67 = icmp eq i32 %66, 1
  br i1 %67, label %68, label %71

68:                                               ; preds = %65
  %69 = load ptr, ptr @bio_err, align 8, !tbaa !15
  %70 = call i32 @BIO_puts(ptr noundef %69, ptr noundef @.str.329)
  br label %82

71:                                               ; preds = %65
  %72 = load i32, ptr %6, align 4, !tbaa !4
  %73 = icmp eq i32 %72, 0
  br i1 %73, label %74, label %77

74:                                               ; preds = %71
  %75 = load ptr, ptr @bio_err, align 8, !tbaa !15
  %76 = call i32 @BIO_puts(ptr noundef %75, ptr noundef @.str.330)
  br label %81

77:                                               ; preds = %71
  %78 = load ptr, ptr @bio_err, align 8, !tbaa !15
  %79 = load i32, ptr %6, align 4, !tbaa !4
  %80 = call i32 (ptr, ptr, ...) @BIO_printf(ptr noundef %78, ptr noundef @.str.331, i32 noundef %79)
  br label %81

81:                                               ; preds = %77, %74
  br label %82

82:                                               ; preds = %81, %68
  br label %83

83:                                               ; preds = %82, %61
  %84 = load ptr, ptr @bio_err, align 8, !tbaa !15
  %85 = call i32 @BIO_puts(ptr noundef %84, ptr noundef @.str.332)
  %86 = load ptr, ptr %7, align 8, !tbaa !77
  call void @gnames_stack_print(ptr noundef %86)
  call void @llvm.lifetime.end.p0(i64 4, ptr %13) #4
  call void @llvm.lifetime.end.p0(i64 8, ptr %12) #4
  br label %87

87:                                               ; preds = %83, %41
  br label %88

88:                                               ; preds = %87, %35
  %89 = load ptr, ptr %5, align 8, !tbaa !19
  call void @CMS_ReceiptRequest_free(ptr noundef %89)
  br label %90

90:                                               ; preds = %88
  %91 = load i32, ptr %10, align 4, !tbaa !4
  %92 = add nsw i32 %91, 1
  store i32 %92, ptr %10, align 4, !tbaa !4
  br label %16, !llvm.loop !81

93:                                               ; preds = %16
  call void @llvm.lifetime.end.p0(i64 4, ptr %11) #4
  call void @llvm.lifetime.end.p0(i64 4, ptr %10) #4
  call void @llvm.lifetime.end.p0(i64 8, ptr %9) #4
  call void @llvm.lifetime.end.p0(i64 8, ptr %8) #4
  call void @llvm.lifetime.end.p0(i64 8, ptr %7) #4
  call void @llvm.lifetime.end.p0(i64 4, ptr %6) #4
  call void @llvm.lifetime.end.p0(i64 8, ptr %5) #4
  call void @llvm.lifetime.end.p0(i64 8, ptr %4) #4
  call void @llvm.lifetime.end.p0(i64 8, ptr %3) #4
  ret void
}