; Function Attrs: nounwind uwtable
define internal fastcc void @receipt_request_print(ptr noundef nonnull %0) unnamed_addr #0 {
  %2 = alloca ptr, align 8
  %3 = alloca i32, align 4
  %4 = alloca ptr, align 8
  %5 = alloca ptr, align 8
  %6 = alloca ptr, align 8
  call void @llvm.lifetime.start.p0(i64 8, ptr nonnull %2) #3
  call void @llvm.lifetime.start.p0(i64 4, ptr nonnull %3) #3
  call void @llvm.lifetime.start.p0(i64 8, ptr nonnull %4) #3
  call void @llvm.lifetime.start.p0(i64 8, ptr nonnull %5) #3
  call void @llvm.lifetime.start.p0(i64 8, ptr nonnull %6) #3
  %7 = tail call ptr @CMS_get0_SignerInfos(ptr noundef nonnull %0) #3
  %8 = tail call i32 @OPENSSL_sk_num(ptr noundef %7) #3
  %9 = icmp sgt i32 %8, 0
  br i1 %9, label %.lr.ph, label %._crit_edge

.lr.ph:                                           ; preds = %1, %55
  %.013 = phi i32 [ %13, %55 ], [ 0, %1 ]
  %10 = call ptr @OPENSSL_sk_value(ptr noundef %7, i32 noundef %.013) #3
  %11 = call i32 @CMS_get1_ReceiptRequest(ptr noundef %10, ptr noundef nonnull %2) #3
  %12 = load ptr, ptr @bio_err, align 8, !tbaa !4
  %13 = add nuw nsw i32 %.013, 1
  %14 = call i32 (ptr, ptr, ...) @BIO_printf(ptr noundef %12, ptr noundef nonnull @.str.323, i32 noundef %13) #3
  %15 = icmp eq i32 %11, 0
  br i1 %15, label %16, label %19

16:                                               ; preds = %.lr.ph
  %17 = load ptr, ptr @bio_err, align 8, !tbaa !4
  %18 = call i32 @BIO_puts(ptr noundef %17, ptr noundef nonnull @.str.324) #3
  br label %55

19:                                               ; preds = %.lr.ph
  %20 = icmp slt i32 %11, 0
  br i1 %20, label %21, label %25

21:                                               ; preds = %19
  %22 = load ptr, ptr @bio_err, align 8, !tbaa !4
  %23 = call i32 @BIO_puts(ptr noundef %22, ptr noundef nonnull @.str.325) #3
  %24 = load ptr, ptr @bio_err, align 8, !tbaa !4
  call void @ERR_print_errors(ptr noundef %24) #3
  br label %55

25:                                               ; preds = %19
  %26 = load ptr, ptr %2, align 8, !tbaa !39
  call void @CMS_ReceiptRequest_get0_values(ptr noundef %26, ptr noundef nonnull %6, ptr noundef nonnull %3, ptr noundef nonnull %5, ptr noundef nonnull %4) #3
  %27 = load ptr, ptr @bio_err, align 8, !tbaa !4
  %28 = call i32 @BIO_puts(ptr noundef %27, ptr noundef nonnull @.str.326) #3
  %29 = load ptr, ptr %6, align 8, !tbaa !41
  %30 = call i32 @ASN1_STRING_length(ptr noundef %29) #3
  %31 = load ptr, ptr %6, align 8, !tbaa !41
  %32 = call ptr @ASN1_STRING_get0_data(ptr noundef %31) #3
  %33 = load ptr, ptr @bio_err, align 8, !tbaa !4
  %34 = call i32 @BIO_dump_indent(ptr noundef %33, ptr noundef %32, i32 noundef %30, i32 noundef 4) #3
  %35 = load ptr, ptr @bio_err, align 8, !tbaa !4
  %36 = call i32 @BIO_puts(ptr noundef %35, ptr noundef nonnull @.str.327) #3
  %37 = load ptr, ptr %5, align 8, !tbaa !43
  %.not = icmp eq ptr %37, null
  br i1 %.not, label %42, label %38

38:                                               ; preds = %25
  %39 = load ptr, ptr @bio_err, align 8, !tbaa !4
  %40 = call i32 @BIO_puts(ptr noundef %39, ptr noundef nonnull @.str.328) #3
  %41 = load ptr, ptr %5, align 8, !tbaa !43
  call fastcc void @gnames_stack_print(ptr noundef %41)
  br label %51

42:                                               ; preds = %25
  %43 = load i32, ptr %3, align 4, !tbaa !19
  %44 = load ptr, ptr @bio_err, align 8, !tbaa !4
  switch i32 %43, label %49 [
    i32 1, label %45
    i32 0, label %47
  ]

45:                                               ; preds = %42
  %46 = call i32 @BIO_puts(ptr noundef %44, ptr noundef nonnull @.str.329) #3
  br label %51

47:                                               ; preds = %42
  %48 = call i32 @BIO_puts(ptr noundef %44, ptr noundef nonnull @.str.330) #3
  br label %51

49:                                               ; preds = %42
  %50 = call i32 (ptr, ptr, ...) @BIO_printf(ptr noundef %44, ptr noundef nonnull @.str.331, i32 noundef %43) #3
  br label %51

51:                                               ; preds = %45, %49, %47, %38
  %52 = load ptr, ptr @bio_err, align 8, !tbaa !4
  %53 = call i32 @BIO_puts(ptr noundef %52, ptr noundef nonnull @.str.332) #3
  %54 = load ptr, ptr %4, align 8, !tbaa !43
  call fastcc void @gnames_stack_print(ptr noundef %54)
  br label %55

55:                                               ; preds = %21, %51, %16
  %56 = load ptr, ptr %2, align 8, !tbaa !39
  call void @CMS_ReceiptRequest_free(ptr noundef %56) #3
  %57 = call i32 @OPENSSL_sk_num(ptr noundef %7) #3
  %58 = icmp slt i32 %13, %57
  br i1 %58, label %.lr.ph, label %._crit_edge, !llvm.loop !45

._crit_edge:                                      ; preds = %55, %1
  call void @llvm.lifetime.end.p0(i64 8, ptr nonnull %6) #3
  call void @llvm.lifetime.end.p0(i64 8, ptr nonnull %5) #3
  call void @llvm.lifetime.end.p0(i64 8, ptr nonnull %4) #3
  call void @llvm.lifetime.end.p0(i64 4, ptr nonnull %3) #3
  call void @llvm.lifetime.end.p0(i64 8, ptr nonnull %2) #3
  ret void
}